(dp0
S'isShellCmd'
p1
I00
sS'cmd'
p2
(lp3
S'/software/UHTS/Analysis/strelka/2.9.6/libexec/strelka2'
p4
aS'--region'
p5
aS'1:47420273-59275340'
p6
aS'--ref'
p7
aS'/data/courses/cancergenomics/SomaticVariantCalling_CancerGenomics_2019/reference/Homo_sapiens.GRCh38.dna.primary_assembly.fa'
p8
aS'--max-indel-size'
p9
aS'49'
p10
aS'--call-regions-bed'
p11
aS'/data/courses/cancergenomics/SomaticVariantCalling_CancerGenomics_2019/targets/KRAS_TP53_CDKN2C_targets_GRCh38.bed.gz'
p12
aS'--min-mapping-quality'
p13
aS'20'
p14
aS'--somatic-snv-rate'
p15
aS'0.0001'
p16
aS'--shared-site-error-rate'
p17
aS'0.0000000005'
p18
aS'--shared-site-error-strand-bias-fraction'
p19
aS'0.0'
p20
aS'--somatic-indel-rate'
p21
aS'0.000001'
p22
aS'--shared-indel-error-factor'
p23
aS'2.2'
p24
aS'--tier2-min-mapping-quality'
p25
aS'0'
p26
aS'--strelka-snv-max-filtered-basecall-frac'
p27
aS'0.4'
p28
aS'--strelka-snv-max-spanning-deletion-frac'
p29
aS'0.75'
p30
aS'--strelka-snv-min-qss-ref'
p31
aS'15'
p32
aS'--strelka-indel-max-window-filtered-basecall-frac'
p33
aS'0.3'
p34
aS'--strelka-indel-min-qsi-ref'
p35
aS'40'
p36
aS'--ssnv-contam-tolerance'
p37
aS'0.15'
p38
aS'--indel-contam-tolerance'
p39
aS'0.15'
p40
aS'--somatic-snv-scoring-model-file'
p41
aS'/software/UHTS/Analysis/strelka/2.9.6/share/config/somaticSNVScoringModels.json'
p42
aS'--somatic-indel-scoring-model-file'
p43
aS'/software/UHTS/Analysis/strelka/2.9.6/share/config/somaticIndelScoringModels.json'
p44
aS'--normal-align-file'
p45
aS'/data/courses/cancergenomics/SomaticVariantCalling_CancerGenomics_2019/dedup/Case_001_N.coordSorted.rg.dedup.bam'
p46
aS'--tumor-align-file'
p47
aS'/data/courses/cancergenomics/SomaticVariantCalling_CancerGenomics_2019/dedup/Case_001_T.coordSorted.rg.dedup.bam'
p48
aS'--somatic-snv-file'
p49
aS'/data/users/student06/day2/part34/strelka/workspace/genomeSegment.tmpdir/somatic.snvs.unfiltered.chromId_000_1_0004.vcf'
p50
aS'--somatic-indel-file'
p51
aS'/data/users/student06/day2/part34/strelka/workspace/genomeSegment.tmpdir/somatic.indels.unfiltered.chromId_000_1_0004.vcf'
p52
aS'--stats-file'
p53
aS'/data/users/student06/day2/part34/strelka/workspace/genomeSegment.tmpdir/runStats.chromId_000_1_0004.xml'
p54
aS'--strelka-skip-header'
p55
asS'errFile'
p56
S'/data/users/student06/day2/part34/strelka/workspace/pyflow.data/logs/pyflow_tasks_stderr_log.txt'
p57
sS'outFile'
p58
S'/data/users/student06/day2/part34/strelka/workspace/pyflow.data/logs/pyflow_tasks_stdout_log.txt'
p59
sS'env'
p60
NsS'nCores'
p61
I1
sS'cwd'
p62
S''
p63
s.