(dp0
S'isShellCmd'
p1
I01
sS'cmd'
p2
S'"/usr/bin/python2" -E "/software/UHTS/Analysis/strelka/2.9.6/libexec/vcfCmdlineSwapper.py" "/software/UHTS/Analysis/strelka/2.9.6/bin/configureStrelkaSomaticWorkflow.py --tumorBam /data/courses/cancergenomics/SomaticVariantCalling_CancerGenomics_2019/dedup/Case_001_T.coordSorted.rg.dedup.bam --normalBam /data/courses/cancergenomics/SomaticVariantCalling_CancerGenomics_2019/dedup/Case_001_N.coordSorted.rg.dedup.bam --referenceFasta /data/courses/cancergenomics/SomaticVariantCalling_CancerGenomics_2019/reference/Homo_sapiens.GRCh38.dna.primary_assembly.fa --callRegions /data/courses/cancergenomics/SomaticVariantCalling_CancerGenomics_2019/targets/KRAS_TP53_CDKN2C_targets_GRCh38.bed.gz --exome --runDir ./strelka" < "/data/users/student06/day2/part34/strelka/workspace/genomeSegment.tmpdir/somatic.snvs.unfiltered.chromId_000_1_0000.vcf" > "/data/users/student06/day2/part34/strelka/workspace/genomeSegment.tmpdir/somatic.snvs.unfiltered.chromId_000_1_0000.vcf.reheader.tmp" && mv "/data/users/student06/day2/part34/strelka/workspace/genomeSegment.tmpdir/somatic.snvs.unfiltered.chromId_000_1_0000.vcf.reheader.tmp" "/data/users/student06/day2/part34/strelka/workspace/genomeSegment.tmpdir/somatic.snvs.unfiltered.chromId_000_1_0000.vcf" && "/usr/bin/python2" -E "/software/UHTS/Analysis/strelka/2.9.6/libexec/vcfCmdlineSwapper.py" "/software/UHTS/Analysis/strelka/2.9.6/bin/configureStrelkaSomaticWorkflow.py --tumorBam /data/courses/cancergenomics/SomaticVariantCalling_CancerGenomics_2019/dedup/Case_001_T.coordSorted.rg.dedup.bam --normalBam /data/courses/cancergenomics/SomaticVariantCalling_CancerGenomics_2019/dedup/Case_001_N.coordSorted.rg.dedup.bam --referenceFasta /data/courses/cancergenomics/SomaticVariantCalling_CancerGenomics_2019/reference/Homo_sapiens.GRCh38.dna.primary_assembly.fa --callRegions /data/courses/cancergenomics/SomaticVariantCalling_CancerGenomics_2019/targets/KRAS_TP53_CDKN2C_targets_GRCh38.bed.gz --exome --runDir ./strelka" < "/data/users/student06/day2/part34/strelka/workspace/genomeSegment.tmpdir/somatic.indels.unfiltered.chromId_000_1_0000.vcf" > "/data/users/student06/day2/part34/strelka/workspace/genomeSegment.tmpdir/somatic.indels.unfiltered.chromId_000_1_0000.vcf.reheader.tmp" && mv "/data/users/student06/day2/part34/strelka/workspace/genomeSegment.tmpdir/somatic.indels.unfiltered.chromId_000_1_0000.vcf.reheader.tmp" "/data/users/student06/day2/part34/strelka/workspace/genomeSegment.tmpdir/somatic.indels.unfiltered.chromId_000_1_0000.vcf"'
p3
sS'errFile'
p4
S'/data/users/student06/day2/part34/strelka/workspace/pyflow.data/logs/pyflow_tasks_stderr_log.txt'
p5
sS'outFile'
p6
S'/data/users/student06/day2/part34/strelka/workspace/pyflow.data/logs/pyflow_tasks_stdout_log.txt'
p7
sS'env'
p8
NsS'nCores'
p9
I1
sS'cwd'
p10
S''
p11
s.