(dp0
S'isShellCmd'
p1
I01
sS'cmd'
p2
S'"/software/UHTS/Analysis/strelka/2.9.6/libexec/bgzip" "/data/users/student06/day2/part34/strelka/workspace/genomeSegment.tmpdir/somatic.snvs.unfiltered.chromId_000_1_0006.vcf" && "/software/UHTS/Analysis/strelka/2.9.6/libexec/bgzip" "/data/users/student06/day2/part34/strelka/workspace/genomeSegment.tmpdir/somatic.indels.unfiltered.chromId_000_1_0006.vcf"'
p3
sS'errFile'
p4
S'/data/users/student06/day2/part34/strelka/workspace/pyflow.data/logs/pyflow_tasks_stderr_log.txt'
p5
sS'outFile'
p6
S'/data/users/student06/day2/part34/strelka/workspace/pyflow.data/logs/pyflow_tasks_stdout_log.txt'
p7
sS'env'
p8
NsS'nCores'
p9
I1
sS'cwd'
p10
S''
p11
s.