(dp0
S'isShellCmd'
p1
I00
sS'cmd'
p2
(lp3
S'/software/UHTS/Analysis/strelka/2.9.6/libexec/bgzf_cat'
p4
aS'-o'
p5
aS'/data/users/student06/day2/part34/strelka/results/variants/somatic.snvs.vcf.gz'
p6
aS'/data/users/student06/day2/part34/strelka/workspace/genomeSegment.tmpdir/somatic.snvs.unfiltered.chromId_000_1_0000.vcf.gz'
p7
aS'/data/users/student06/day2/part34/strelka/workspace/genomeSegment.tmpdir/somatic.snvs.unfiltered.chromId_000_1_0001.vcf.gz'
p8
aS'/data/users/student06/day2/part34/strelka/workspace/genomeSegment.tmpdir/somatic.snvs.unfiltered.chromId_000_1_0002.vcf.gz'
p9
aS'/data/users/student06/day2/part34/strelka/workspace/genomeSegment.tmpdir/somatic.snvs.unfiltered.chromId_000_1_0003.vcf.gz'
p10
aS'/data/users/student06/day2/part34/strelka/workspace/genomeSegment.tmpdir/somatic.snvs.unfiltered.chromId_000_1_0004.vcf.gz'
p11
aS'/data/users/student06/day2/part34/strelka/workspace/genomeSegment.tmpdir/somatic.snvs.unfiltered.chromId_000_1_0005.vcf.gz'
p12
aS'/data/users/student06/day2/part34/strelka/workspace/genomeSegment.tmpdir/somatic.snvs.unfiltered.chromId_000_1_0006.vcf.gz'
p13
aS'/data/users/student06/day2/part34/strelka/workspace/genomeSegment.tmpdir/somatic.snvs.unfiltered.chromId_000_1_0007.vcf.gz'
p14
aS'/data/users/student06/day2/part34/strelka/workspace/genomeSegment.tmpdir/somatic.snvs.unfiltered.chromId_000_1_0008.vcf.gz'
p15
aS'/data/users/student06/day2/part34/strelka/workspace/genomeSegment.tmpdir/somatic.snvs.unfiltered.chromId_000_1_0009.vcf.gz'
p16
aS'/data/users/student06/day2/part34/strelka/workspace/genomeSegment.tmpdir/somatic.snvs.unfiltered.chromId_000_1_0010.vcf.gz'
p17
aS'/data/users/student06/day2/part34/strelka/workspace/genomeSegment.tmpdir/somatic.snvs.unfiltered.chromId_000_1_0011.vcf.gz'
p18
aS'/data/users/student06/day2/part34/strelka/workspace/genomeSegment.tmpdir/somatic.snvs.unfiltered.chromId_000_1_0012.vcf.gz'
p19
aS'/data/users/student06/day2/part34/strelka/workspace/genomeSegment.tmpdir/somatic.snvs.unfiltered.chromId_000_1_0013.vcf.gz'
p20
aS'/data/users/student06/day2/part34/strelka/workspace/genomeSegment.tmpdir/somatic.snvs.unfiltered.chromId_000_1_0014.vcf.gz'
p21
aS'/data/users/student06/day2/part34/strelka/workspace/genomeSegment.tmpdir/somatic.snvs.unfiltered.chromId_000_1_0015.vcf.gz'
p22
aS'/data/users/student06/day2/part34/strelka/workspace/genomeSegment.tmpdir/somatic.snvs.unfiltered.chromId_000_1_0016.vcf.gz'
p23
aS'/data/users/student06/day2/part34/strelka/workspace/genomeSegment.tmpdir/somatic.snvs.unfiltered.chromId_000_1_0017.vcf.gz'
p24
aS'/data/users/student06/day2/part34/strelka/workspace/genomeSegment.tmpdir/somatic.snvs.unfiltered.chromId_000_1_0018.vcf.gz'
p25
aS'/data/users/student06/day2/part34/strelka/workspace/genomeSegment.tmpdir/somatic.snvs.unfiltered.chromId_000_1_0019.vcf.gz'
p26
aS'/data/users/student06/day2/part34/strelka/workspace/genomeSegment.tmpdir/somatic.snvs.unfiltered.chromId_000_1_0020.vcf.gz'
p27
aS'/data/users/student06/day2/part34/strelka/workspace/genomeSegment.tmpdir/somatic.snvs.unfiltered.chromId_003_12_0000.vcf.gz'
p28
aS'/data/users/student06/day2/part34/strelka/workspace/genomeSegment.tmpdir/somatic.snvs.unfiltered.chromId_003_12_0001.vcf.gz'
p29
aS'/data/users/student06/day2/part34/strelka/workspace/genomeSegment.tmpdir/somatic.snvs.unfiltered.chromId_003_12_0002.vcf.gz'
p30
aS'/data/users/student06/day2/part34/strelka/workspace/genomeSegment.tmpdir/somatic.snvs.unfiltered.chromId_003_12_0003.vcf.gz'
p31
aS'/data/users/student06/day2/part34/strelka/workspace/genomeSegment.tmpdir/somatic.snvs.unfiltered.chromId_003_12_0004.vcf.gz'
p32
aS'/data/users/student06/day2/part34/strelka/workspace/genomeSegment.tmpdir/somatic.snvs.unfiltered.chromId_003_12_0005.vcf.gz'
p33
aS'/data/users/student06/day2/part34/strelka/workspace/genomeSegment.tmpdir/somatic.snvs.unfiltered.chromId_003_12_0006.vcf.gz'
p34
aS'/data/users/student06/day2/part34/strelka/workspace/genomeSegment.tmpdir/somatic.snvs.unfiltered.chromId_003_12_0007.vcf.gz'
p35
aS'/data/users/student06/day2/part34/strelka/workspace/genomeSegment.tmpdir/somatic.snvs.unfiltered.chromId_003_12_0008.vcf.gz'
p36
aS'/data/users/student06/day2/part34/strelka/workspace/genomeSegment.tmpdir/somatic.snvs.unfiltered.chromId_003_12_0009.vcf.gz'
p37
aS'/data/users/student06/day2/part34/strelka/workspace/genomeSegment.tmpdir/somatic.snvs.unfiltered.chromId_003_12_0010.vcf.gz'
p38
aS'/data/users/student06/day2/part34/strelka/workspace/genomeSegment.tmpdir/somatic.snvs.unfiltered.chromId_003_12_0011.vcf.gz'
p39
aS'/data/users/student06/day2/part34/strelka/workspace/genomeSegment.tmpdir/somatic.snvs.unfiltered.chromId_008_17_0000.vcf.gz'
p40
aS'/data/users/student06/day2/part34/strelka/workspace/genomeSegment.tmpdir/somatic.snvs.unfiltered.chromId_008_17_0001.vcf.gz'
p41
aS'/data/users/student06/day2/part34/strelka/workspace/genomeSegment.tmpdir/somatic.snvs.unfiltered.chromId_008_17_0002.vcf.gz'
p42
aS'/data/users/student06/day2/part34/strelka/workspace/genomeSegment.tmpdir/somatic.snvs.unfiltered.chromId_008_17_0003.vcf.gz'
p43
aS'/data/users/student06/day2/part34/strelka/workspace/genomeSegment.tmpdir/somatic.snvs.unfiltered.chromId_008_17_0004.vcf.gz'
p44
aS'/data/users/student06/day2/part34/strelka/workspace/genomeSegment.tmpdir/somatic.snvs.unfiltered.chromId_008_17_0005.vcf.gz'
p45
aS'/data/users/student06/day2/part34/strelka/workspace/genomeSegment.tmpdir/somatic.snvs.unfiltered.chromId_008_17_0006.vcf.gz'
p46
asS'errFile'
p47
S'/data/users/student06/day2/part34/strelka/workspace/pyflow.data/logs/pyflow_tasks_stderr_log.txt'
p48
sS'outFile'
p49
S'/data/users/student06/day2/part34/strelka/workspace/pyflow.data/logs/pyflow_tasks_stdout_log.txt'
p50
sS'env'
p51
NsS'nCores'
p52
I1
sS'cwd'
p53
S''
p54
s.