(dp0
S'isShellCmd'
p1
I00
sS'cmd'
p2
(lp3
S'/software/UHTS/Analysis/strelka/2.9.6/libexec/MergeRunStats'
p4
aS'--stats-file'
p5
aS'/data/users/student06/day2/part34/strelka/workspace/genomeSegment.tmpdir/runStats.chromId_000_1_0000.xml'
p6
ag5
aS'/data/users/student06/day2/part34/strelka/workspace/genomeSegment.tmpdir/runStats.chromId_000_1_0001.xml'
p7
ag5
aS'/data/users/student06/day2/part34/strelka/workspace/genomeSegment.tmpdir/runStats.chromId_000_1_0002.xml'
p8
ag5
aS'/data/users/student06/day2/part34/strelka/workspace/genomeSegment.tmpdir/runStats.chromId_000_1_0003.xml'
p9
ag5
aS'/data/users/student06/day2/part34/strelka/workspace/genomeSegment.tmpdir/runStats.chromId_000_1_0004.xml'
p10
ag5
aS'/data/users/student06/day2/part34/strelka/workspace/genomeSegment.tmpdir/runStats.chromId_000_1_0005.xml'
p11
ag5
aS'/data/users/student06/day2/part34/strelka/workspace/genomeSegment.tmpdir/runStats.chromId_000_1_0006.xml'
p12
ag5
aS'/data/users/student06/day2/part34/strelka/workspace/genomeSegment.tmpdir/runStats.chromId_000_1_0007.xml'
p13
ag5
aS'/data/users/student06/day2/part34/strelka/workspace/genomeSegment.tmpdir/runStats.chromId_000_1_0008.xml'
p14
ag5
aS'/data/users/student06/day2/part34/strelka/workspace/genomeSegment.tmpdir/runStats.chromId_000_1_0009.xml'
p15
ag5
aS'/data/users/student06/day2/part34/strelka/workspace/genomeSegment.tmpdir/runStats.chromId_000_1_0010.xml'
p16
ag5
aS'/data/users/student06/day2/part34/strelka/workspace/genomeSegment.tmpdir/runStats.chromId_000_1_0011.xml'
p17
ag5
aS'/data/users/student06/day2/part34/strelka/workspace/genomeSegment.tmpdir/runStats.chromId_000_1_0012.xml'
p18
ag5
aS'/data/users/student06/day2/part34/strelka/workspace/genomeSegment.tmpdir/runStats.chromId_000_1_0013.xml'
p19
ag5
aS'/data/users/student06/day2/part34/strelka/workspace/genomeSegment.tmpdir/runStats.chromId_000_1_0014.xml'
p20
ag5
aS'/data/users/student06/day2/part34/strelka/workspace/genomeSegment.tmpdir/runStats.chromId_000_1_0015.xml'
p21
ag5
aS'/data/users/student06/day2/part34/strelka/workspace/genomeSegment.tmpdir/runStats.chromId_000_1_0016.xml'
p22
ag5
aS'/data/users/student06/day2/part34/strelka/workspace/genomeSegment.tmpdir/runStats.chromId_000_1_0017.xml'
p23
ag5
aS'/data/users/student06/day2/part34/strelka/workspace/genomeSegment.tmpdir/runStats.chromId_000_1_0018.xml'
p24
ag5
aS'/data/users/student06/day2/part34/strelka/workspace/genomeSegment.tmpdir/runStats.chromId_000_1_0019.xml'
p25
ag5
aS'/data/users/student06/day2/part34/strelka/workspace/genomeSegment.tmpdir/runStats.chromId_000_1_0020.xml'
p26
ag5
aS'/data/users/student06/day2/part34/strelka/workspace/genomeSegment.tmpdir/runStats.chromId_003_12_0000.xml'
p27
ag5
aS'/data/users/student06/day2/part34/strelka/workspace/genomeSegment.tmpdir/runStats.chromId_003_12_0001.xml'
p28
ag5
aS'/data/users/student06/day2/part34/strelka/workspace/genomeSegment.tmpdir/runStats.chromId_003_12_0002.xml'
p29
ag5
aS'/data/users/student06/day2/part34/strelka/workspace/genomeSegment.tmpdir/runStats.chromId_003_12_0003.xml'
p30
ag5
aS'/data/users/student06/day2/part34/strelka/workspace/genomeSegment.tmpdir/runStats.chromId_003_12_0004.xml'
p31
ag5
aS'/data/users/student06/day2/part34/strelka/workspace/genomeSegment.tmpdir/runStats.chromId_003_12_0005.xml'
p32
ag5
aS'/data/users/student06/day2/part34/strelka/workspace/genomeSegment.tmpdir/runStats.chromId_003_12_0006.xml'
p33
ag5
aS'/data/users/student06/day2/part34/strelka/workspace/genomeSegment.tmpdir/runStats.chromId_003_12_0007.xml'
p34
ag5
aS'/data/users/student06/day2/part34/strelka/workspace/genomeSegment.tmpdir/runStats.chromId_003_12_0008.xml'
p35
ag5
aS'/data/users/student06/day2/part34/strelka/workspace/genomeSegment.tmpdir/runStats.chromId_003_12_0009.xml'
p36
ag5
aS'/data/users/student06/day2/part34/strelka/workspace/genomeSegment.tmpdir/runStats.chromId_003_12_0010.xml'
p37
ag5
aS'/data/users/student06/day2/part34/strelka/workspace/genomeSegment.tmpdir/runStats.chromId_003_12_0011.xml'
p38
ag5
aS'/data/users/student06/day2/part34/strelka/workspace/genomeSegment.tmpdir/runStats.chromId_008_17_0000.xml'
p39
ag5
aS'/data/users/student06/day2/part34/strelka/workspace/genomeSegment.tmpdir/runStats.chromId_008_17_0001.xml'
p40
ag5
aS'/data/users/student06/day2/part34/strelka/workspace/genomeSegment.tmpdir/runStats.chromId_008_17_0002.xml'
p41
ag5
aS'/data/users/student06/day2/part34/strelka/workspace/genomeSegment.tmpdir/runStats.chromId_008_17_0003.xml'
p42
ag5
aS'/data/users/student06/day2/part34/strelka/workspace/genomeSegment.tmpdir/runStats.chromId_008_17_0004.xml'
p43
ag5
aS'/data/users/student06/day2/part34/strelka/workspace/genomeSegment.tmpdir/runStats.chromId_008_17_0005.xml'
p44
ag5
aS'/data/users/student06/day2/part34/strelka/workspace/genomeSegment.tmpdir/runStats.chromId_008_17_0006.xml'
p45
aS'--output-file'
p46
aS'/data/users/student06/day2/part34/strelka/results/stats/runStats.xml'
p47
aS'--report-file'
p48
aS'/data/users/student06/day2/part34/strelka/results/stats/runStats.tsv'
p49
asS'errFile'
p50
S'/data/users/student06/day2/part34/strelka/workspace/pyflow.data/logs/pyflow_tasks_stderr_log.txt'
p51
sS'outFile'
p52
S'/data/users/student06/day2/part34/strelka/workspace/pyflow.data/logs/pyflow_tasks_stdout_log.txt'
p53
sS'env'
p54
NsS'nCores'
p55
I1
sS'cwd'
p56
S''
p57
s.